target datalayout = "e-m:e-p270:32:32-p271:32:32-p272:64:64-i64:64-i128:128-f80:128-n8:16:32:64-S128"
target triple = "x86_64-pc-linux-gnu"

%struct.DefElem = type { i32, ptr, ptr, ptr, i32, i32 }
%struct.Node = type { i32 }
%union.ListCell = type { ptr }
%struct.TypeName = type { i32, ptr, i32, i8, i8, ptr, i32, ptr, i32 }

@.str = private unnamed_addr constant [24 x i8] c"%s requires a parameter\00", align 1
@.str.1 = private unnamed_addr constant [9 x i8] c"define.c\00", align 1
@__func__.defGetQualifiedName = private unnamed_addr constant [20 x i8] c"defGetQualifiedName\00", align 1
@.str.12 = private unnamed_addr constant [30 x i8] c"argument of %s must be a name\00", align 1

; Function Attrs: nounwind uwtable
define dso_local ptr @defGetQualifiedName(ptr noundef %0) #0 {
  %2 = alloca ptr, align 8
  %3 = alloca ptr, align 8
  %4 = alloca %union.ListCell, align 8
  store ptr %0, ptr %3, align 8
  %5 = load ptr, ptr %3, align 8
  %6 = getelementptr inbounds nuw %struct.DefElem, ptr %5, i32 0, i32 3
  %7 = load ptr, ptr %6, align 8
  %8 = icmp eq ptr %7, null
  br i1 %8, label %9, label %23

9:                                                ; preds = %1
  br label %10

10:                                               ; preds = %9
  br i1 true, label %11, label %13

11:                                               ; preds = %10
  %12 = call zeroext i1 @errstart_cold(i32 noundef 21, ptr noundef null) #9
  br i1 %12, label %15, label %21

13:                                               ; preds = %10
  %14 = call zeroext i1 @errstart(i32 noundef 21, ptr noundef null)
  br i1 %14, label %15, label %21

15:                                               ; preds = %13, %11
  %16 = call i32 @errcode(i32 noundef 16801924)
  %17 = load ptr, ptr %3, align 8
  %18 = getelementptr inbounds nuw %struct.DefElem, ptr %17, i32 0, i32 2
  %19 = load ptr, ptr %18, align 8
  %20 = call i32 (ptr, ...) @errmsg(ptr noundef @.str, ptr noundef %19)
  call void @errfinish(ptr noundef @.str.1, i32 noundef 245, ptr noundef @__func__.defGetQualifiedName)
  br label %21

21:                                               ; preds = %15, %13, %11
  unreachable

22:                                               ; No predecessors!
  br label %23

23:                                               ; preds = %22, %1
  %24 = load ptr, ptr %3, align 8
  %25 = getelementptr inbounds nuw %struct.DefElem, ptr %24, i32 0, i32 3
  %26 = load ptr, ptr %25, align 8
  %27 = getelementptr inbounds nuw %struct.Node, ptr %26, i32 0, i32 0
  %28 = load i32, ptr %27, align 4
  switch i32 %28, label %46 [
    i32 68, label %29
    i32 1, label %35
    i32 467, label %39
  ]

29:                                               ; preds = %23
  %30 = load ptr, ptr %3, align 8
  %31 = getelementptr inbounds nuw %struct.DefElem, ptr %30, i32 0, i32 3
  %32 = load ptr, ptr %31, align 8
  %33 = getelementptr inbounds nuw %struct.TypeName, ptr %32, i32 0, i32 1
  %34 = load ptr, ptr %33, align 8
  store ptr %34, ptr %2, align 8
  br label %61

35:                                               ; preds = %23
  %36 = load ptr, ptr %3, align 8
  %37 = getelementptr inbounds nuw %struct.DefElem, ptr %36, i32 0, i32 3
  %38 = load ptr, ptr %37, align 8
  store ptr %38, ptr %2, align 8
  br label %61

39:                                               ; preds = %23
  %40 = load ptr, ptr %3, align 8
  %41 = getelementptr inbounds nuw %struct.DefElem, ptr %40, i32 0, i32 3
  %42 = load ptr, ptr %41, align 8
  store ptr %42, ptr %4, align 8
  %43 = getelementptr inbounds nuw %union.ListCell, ptr %4, i32 0, i32 0
  %44 = load ptr, ptr %43, align 8
  %45 = call ptr @list_make1_impl(i32 noundef 1, ptr %44)
  store ptr %45, ptr %2, align 8
  br label %61

46:                                               ; preds = %23
  br label %47

47:                                               ; preds = %46
  br i1 true, label %48, label %50

48:                                               ; preds = %47
  %49 = call zeroext i1 @errstart_cold(i32 noundef 21, ptr noundef null) #9
  br i1 %49, label %52, label %58

50:                                               ; preds = %47
  %51 = call zeroext i1 @errstart(i32 noundef 21, ptr noundef null)
  br i1 %51, label %52, label %58

52:                                               ; preds = %50, %48
  %53 = call i32 @errcode(i32 noundef 16801924)
  %54 = load ptr, ptr %3, align 8
  %55 = getelementptr inbounds nuw %struct.DefElem, ptr %54, i32 0, i32 2
  %56 = load ptr, ptr %55, align 8
  %57 = call i32 (ptr, ...) @errmsg(ptr noundef @.str.12, ptr noundef %56)
  call void @errfinish(ptr noundef @.str.1, i32 noundef 259, ptr noundef @__func__.defGetQualifiedName)
  br label %58

58:                                               ; preds = %52, %50, %48
  unreachable

59:                                               ; No predecessors!
  br label %60

60:                                               ; preds = %59
  store ptr null, ptr %2, align 8
  br label %61

61:                                               ; preds = %60, %39, %35, %29
  %62 = load ptr, ptr %2, align 8
  ret ptr %62
}